target datalayout = "e-m:e-p270:32:32-p271:32:32-p272:64:64-i64:64-i128:128-f80:128-n8:16:32:64-S128"
target triple = "x86_64-pc-linux-gnu"

%struct.GCtab = type { %struct.GCRef, i8, i8, i8, i8, %struct.MRef, %struct.GCRef, %struct.GCRef, %struct.MRef, i32, i32, %struct.MRef }
%struct.GCRef = type { i64 }
%struct.MRef = type { i64 }
%struct.GCstr = type { %struct.GCRef, i8, i8, i8, i8, i32, i32, i32 }
%struct.Node = type { %union.TValue, %union.TValue, %struct.MRef }
%union.TValue = type { i64 }

; Function Attrs: alwaysinline nounwind uwtable
define internal ptr @hashmask(ptr noundef %0, i32 noundef %1) #2 {
  %3 = alloca ptr, align 8
  %4 = alloca i32, align 4
  %5 = alloca ptr, align 8
  store ptr %0, ptr %3, align 8, !tbaa !11
  store i32 %1, ptr %4, align 4, !tbaa !9
  call void @llvm.lifetime.start.p0(i64 8, ptr %5) #9
  %6 = load ptr, ptr %3, align 8, !tbaa !11
  %7 = getelementptr inbounds nuw %struct.GCtab, ptr %6, i32 0, i32 8
  %8 = getelementptr inbounds nuw %struct.MRef, ptr %7, i32 0, i32 0
  %9 = load i64, ptr %8, align 8, !tbaa !29
  %10 = inttoptr i64 %9 to ptr
  store ptr %10, ptr %5, align 8, !tbaa !27
  %11 = load ptr, ptr %5, align 8, !tbaa !27
  %12 = load i32, ptr %4, align 4, !tbaa !9
  %13 = load ptr, ptr %3, align 8, !tbaa !11
  %14 = getelementptr inbounds nuw %struct.GCtab, ptr %13, i32 0, i32 10
  %15 = load i32, ptr %14, align 4, !tbaa !13
  %16 = and i32 %12, %15
  %17 = zext i32 %16 to i64
  %18 = getelementptr inbounds nuw %struct.Node, ptr %11, i64 %17
  call void @llvm.lifetime.end.p0(i64 8, ptr %5) #9
  ret ptr %18
}

; Function Attrs: nounwind uwtable
define hidden ptr @lj_tab_getstr(ptr noundef %0, ptr noundef %1) #0 {
  %3 = alloca ptr, align 8
  %4 = alloca ptr, align 8
  %5 = alloca ptr, align 8
  %6 = alloca ptr, align 8
  %7 = alloca i32, align 4
  store ptr %0, ptr %4, align 8, !tbaa !11
  store ptr %1, ptr %5, align 8, !tbaa !66
  call void @llvm.lifetime.start.p0(i64 8, ptr %6) #9
  %8 = load ptr, ptr %4, align 8, !tbaa !11
  %9 = load ptr, ptr %5, align 8, !tbaa !66
  %10 = getelementptr inbounds nuw %struct.GCstr, ptr %9, i32 0, i32 5
  %11 = load i32, ptr %10, align 4, !tbaa !68
  %12 = call ptr @hashmask(ptr noundef %8, i32 noundef %11)
  store ptr %12, ptr %6, align 8, !tbaa !27
  br label %13

13:                                               ; preds = %33, %2
  %14 = load ptr, ptr %6, align 8, !tbaa !27
  %15 = getelementptr inbounds nuw %struct.Node, ptr %14, i32 0, i32 1
  %16 = load i64, ptr %15, align 8, !tbaa !32
  %17 = ashr i64 %16, 47
  %18 = trunc i64 %17 to i32
  %19 = icmp eq i32 %18, -5
  br i1 %19, label %20, label %32

20:                                               ; preds = %13
  %21 = load ptr, ptr %6, align 8, !tbaa !27
  %22 = getelementptr inbounds nuw %struct.Node, ptr %21, i32 0, i32 1
  %23 = getelementptr inbounds nuw %struct.GCRef, ptr %22, i32 0, i32 0
  %24 = load i64, ptr %23, align 8, !tbaa !32
  %25 = and i64 %24, 140737488355327
  %26 = inttoptr i64 %25 to ptr
  %27 = load ptr, ptr %5, align 8, !tbaa !66
  %28 = icmp eq ptr %26, %27
  br i1 %28, label %29, label %32

29:                                               ; preds = %20
  %30 = load ptr, ptr %6, align 8, !tbaa !27
  %31 = getelementptr inbounds nuw %struct.Node, ptr %30, i32 0, i32 0
  store ptr %31, ptr %3, align 8
  store i32 1, ptr %7, align 4
  br label %41

32:                                               ; preds = %20, %13
  br label %33

33:                                               ; preds = %32
  %34 = load ptr, ptr %6, align 8, !tbaa !27
  %35 = getelementptr inbounds nuw %struct.Node, ptr %34, i32 0, i32 2
  %36 = getelementptr inbounds nuw %struct.MRef, ptr %35, i32 0, i32 0
  %37 = load i64, ptr %36, align 8, !tbaa !35
  %38 = inttoptr i64 %37 to ptr
  store ptr %38, ptr %6, align 8, !tbaa !27
  %39 = icmp ne ptr %38, null
  br i1 %39, label %13, label %40, !llvm.loop !69

40:                                               ; preds = %33
  store ptr null, ptr %3, align 8
  store i32 1, ptr %7, align 4
  br label %41

41:                                               ; preds = %40, %29
  call void @llvm.lifetime.end.p0(i64 8, ptr %6) #9
  %42 = load ptr, ptr %3, align 8
  ret ptr %42
}