; Function Attrs: nofree norecurse nosync nounwind memory(read, inaccessiblemem: none) uwtable
define hidden ptr @lj_tab_getstr(ptr noundef readonly captures(none) %0, ptr noundef readonly captures(address) %1) local_unnamed_addr #7 {
  %3 = getelementptr inbounds nuw i8, ptr %1, i64 12
  %4 = load i32, ptr %3, align 4, !tbaa !47
  %5 = getelementptr inbounds nuw i8, ptr %0, i64 40
  %6 = load i64, ptr %5, align 8, !tbaa !15
  %7 = inttoptr i64 %6 to ptr
  %8 = getelementptr inbounds nuw i8, ptr %0, i64 52
  %9 = load i32, ptr %8, align 4, !tbaa !14
  %10 = and i32 %9, %4
  %11 = zext i32 %10 to i64
  %12 = getelementptr inbounds nuw %struct.Node, ptr %7, i64 %11
  br label %13

13:                                               ; preds = %20, %2
  %.0 = phi ptr [ %12, %2 ], [ %23, %20 ]
  %14 = getelementptr inbounds nuw i8, ptr %.0, i64 8
  %15 = load i64, ptr %14, align 8, !tbaa !13
  %.mask = and i64 %15, -140737488355328
  %16 = icmp eq i64 %.mask, -703687441776640
  %17 = and i64 %15, 140737488355327
  %18 = inttoptr i64 %17 to ptr
  %19 = icmp eq ptr %1, %18
  %or.cond = and i1 %16, %19
  br i1 %or.cond, label %24, label %20

20:                                               ; preds = %13
  %21 = getelementptr inbounds nuw i8, ptr %.0, i64 16
  %22 = load i64, ptr %21, align 8, !tbaa !16
  %23 = inttoptr i64 %22 to ptr
  %.not = icmp eq i64 %22, 0
  br i1 %.not, label %24, label %13, !llvm.loop !51

24:                                               ; preds = %20, %13
  %.08 = phi ptr [ %.0, %13 ], [ null, %20 ]
  ret ptr %.08
}